target datalayout = "e-m:e-p270:32:32-p271:32:32-p272:64:64-i64:64-i128:128-f80:128-n8:16:32:64-S128"
target triple = "x86_64-pc-linux-gnu"

%class.State = type { [315 x i32], [315 x i16], i32, ptr, [2 x ptr] }

; Function Attrs: mustprogress nounwind uwtable
define hidden void @_ZN5State18_sub_Op_LoadVectorEPK4Node(ptr noundef nonnull align 8 dereferenceable(1920) %0, ptr noundef %1) #1 align 2 {
  %3 = alloca ptr, align 8
  %4 = alloca ptr, align 8
  %5 = alloca i32, align 4
  %6 = alloca i32, align 4
  store ptr %0, ptr %3, align 8
  store ptr %1, ptr %4, align 8
  %7 = load ptr, ptr %3, align 8
  %8 = getelementptr inbounds %class.State, ptr %7, i32 0, i32 4
  %9 = getelementptr inbounds [2 x ptr], ptr %8, i64 0, i64 0
  %10 = load ptr, ptr %9, align 8
  %11 = icmp ne ptr %10, null
  br i1 %11, label %12, label %41

12:                                               ; preds = %2
  %13 = getelementptr inbounds %class.State, ptr %7, i32 0, i32 4
  %14 = getelementptr inbounds [2 x ptr], ptr %13, i64 0, i64 0
  %15 = load ptr, ptr %14, align 8
  %16 = getelementptr inbounds %class.State, ptr %15, i32 0, i32 1
  %17 = getelementptr inbounds [315 x i16], ptr %16, i64 0, i64 127
  %18 = load i16, ptr %17, align 2
  %19 = zext i16 %18 to i32
  %20 = and i32 %19, 1
  %21 = icmp ne i32 %20, 0
  br i1 %21, label %22, label %41

22:                                               ; preds = %12
  %23 = getelementptr inbounds %class.State, ptr %7, i32 0, i32 4
  %24 = getelementptr inbounds [2 x ptr], ptr %23, i64 0, i64 0
  %25 = load ptr, ptr %24, align 8
  %26 = getelementptr inbounds %class.State, ptr %25, i32 0, i32 0
  %27 = getelementptr inbounds [315 x i32], ptr %26, i64 0, i64 127
  %28 = load i32, ptr %27, align 4
  %29 = add i32 %28, 125
  store i32 %29, ptr %5, align 4
  %30 = load i32, ptr %5, align 4
  %31 = getelementptr inbounds %class.State, ptr %7, i32 0, i32 0
  %32 = getelementptr inbounds [315 x i32], ptr %31, i64 0, i64 114
  store i32 %30, ptr %32, align 8
  %33 = getelementptr inbounds %class.State, ptr %7, i32 0, i32 1
  %34 = getelementptr inbounds [315 x i16], ptr %33, i64 0, i64 114
  store i16 2331, ptr %34, align 4
  %35 = load i32, ptr %5, align 4
  %36 = add i32 %35, 100
  %37 = getelementptr inbounds %class.State, ptr %7, i32 0, i32 0
  %38 = getelementptr inbounds [315 x i32], ptr %37, i64 0, i64 115
  store i32 %36, ptr %38, align 4
  %39 = getelementptr inbounds %class.State, ptr %7, i32 0, i32 1
  %40 = getelementptr inbounds [315 x i16], ptr %39, i64 0, i64 115
  store i16 731, ptr %40, align 2
  br label %41

41:                                               ; preds = %22, %12, %2
  %42 = getelementptr inbounds %class.State, ptr %7, i32 0, i32 4
  %43 = getelementptr inbounds [2 x ptr], ptr %42, i64 0, i64 0
  %44 = load ptr, ptr %43, align 8
  %45 = icmp ne ptr %44, null
  br i1 %45, label %46, label %68

46:                                               ; preds = %41
  %47 = getelementptr inbounds %class.State, ptr %7, i32 0, i32 4
  %48 = getelementptr inbounds [2 x ptr], ptr %47, i64 0, i64 0
  %49 = load ptr, ptr %48, align 8
  %50 = getelementptr inbounds %class.State, ptr %49, i32 0, i32 1
  %51 = getelementptr inbounds [315 x i16], ptr %50, i64 0, i64 127
  %52 = load i16, ptr %51, align 2
  %53 = zext i16 %52 to i32
  %54 = and i32 %53, 1
  %55 = icmp ne i32 %54, 0
  br i1 %55, label %56, label %68

56:                                               ; preds = %46
  %57 = getelementptr inbounds %class.State, ptr %7, i32 0, i32 4
  %58 = getelementptr inbounds [2 x ptr], ptr %57, i64 0, i64 0
  %59 = load ptr, ptr %58, align 8
  %60 = getelementptr inbounds %class.State, ptr %59, i32 0, i32 0
  %61 = getelementptr inbounds [315 x i32], ptr %60, i64 0, i64 127
  %62 = load i32, ptr %61, align 4
  store i32 %62, ptr %6, align 4
  %63 = load i32, ptr %6, align 4
  %64 = getelementptr inbounds %class.State, ptr %7, i32 0, i32 0
  %65 = getelementptr inbounds [315 x i32], ptr %64, i64 0, i64 277
  store i32 %63, ptr %65, align 4
  %66 = getelementptr inbounds %class.State, ptr %7, i32 0, i32 1
  %67 = getelementptr inbounds [315 x i16], ptr %66, i64 0, i64 277
  store i16 555, ptr %67, align 2
  br label %68

68:                                               ; preds = %56, %46, %41
  ret void
}