; Function Attrs: mustprogress nofree norecurse nosync nounwind willreturn memory(read, argmem: readwrite, inaccessiblemem: none) uwtable
define hidden void @_ZN5State18_sub_Op_LoadVectorEPK4Node(ptr nocapture noundef nonnull align 8 dereferenceable(1920) %0, ptr nocapture readnone %1) local_unnamed_addr #1 align 2 {
  %3 = getelementptr inbounds i8, ptr %0, i64 1904
  %4 = load ptr, ptr %3, align 8
  %.not = icmp eq ptr %4, null
  br i1 %.not, label %.thread, label %5

5:                                                ; preds = %2
  %6 = getelementptr inbounds i8, ptr %4, i64 1514
  %7 = load i16, ptr %6, align 2
  %8 = and i16 %7, 1
  %.not4 = icmp eq i16 %8, 0
  br i1 %.not4, label %.thread, label %9

9:                                                ; preds = %5
  %10 = getelementptr inbounds i8, ptr %4, i64 508
  %11 = load i32, ptr %10, align 4
  %12 = getelementptr inbounds i8, ptr %0, i64 456
  %13 = getelementptr inbounds i8, ptr %0, i64 1488
  store i16 2331, ptr %13, align 8
  %14 = insertelement <2 x i32> poison, i32 %11, i64 0
  %15 = shufflevector <2 x i32> %14, <2 x i32> poison, <2 x i32> zeroinitializer
  %16 = add <2 x i32> %15, <i32 125, i32 225>
  store <2 x i32> %16, ptr %12, align 8
  %17 = getelementptr inbounds i8, ptr %0, i64 1490
  store i16 731, ptr %17, align 2
  %.pre = load i16, ptr %6, align 2
  %.pre7 = and i16 %.pre, 1
  %18 = icmp eq i16 %.pre7, 0
  br i1 %18, label %.thread, label %19

19:                                               ; preds = %9
  %20 = getelementptr inbounds i8, ptr %4, i64 508
  %21 = load i32, ptr %20, align 4
  %22 = getelementptr inbounds i8, ptr %0, i64 1108
  store i32 %21, ptr %22, align 4
  %23 = getelementptr inbounds i8, ptr %0, i64 1814
  store i16 555, ptr %23, align 2
  br label %.thread

.thread:                                          ; preds = %5, %2, %19, %9
  ret void
}